; Function Attrs: mustprogress uwtable
define hidden noundef i32 @_ZNK7datalog23finite_product_relation16get_next_rel_idxEv(ptr noundef nonnull align 8 dereferenceable(160) %this) local_unnamed_addr #3 align 2 {
entry:
  %m_available_rel_indexes = getelementptr inbounds i8, ptr %this, i64 120
  %0 = load ptr, ptr %m_available_rel_indexes, align 8
  %cmp.i = icmp eq ptr %0, null
  br i1 %cmp.i, label %if.else, label %_ZNK6vectorIjLb0EjE5emptyEv.exit

_ZNK6vectorIjLb0EjE5emptyEv.exit:                 ; preds = %entry
  %arrayidx.i = getelementptr inbounds i8, ptr %0, i64 -4
  %1 = load i32, ptr %arrayidx.i, align 4
  %cmp3.i = icmp eq i32 %1, 0
  br i1 %cmp3.i, label %if.else, label %_ZN6vectorIjLb0EjE4backEv.exit

_ZN6vectorIjLb0EjE4backEv.exit:                   ; preds = %_ZNK6vectorIjLb0EjE5emptyEv.exit
  %2 = add i32 %1, -1
  %3 = zext i32 %2 to i64
  %arrayidx.i1.i = getelementptr inbounds i32, ptr %0, i64 %3
  %4 = load i32, ptr %arrayidx.i1.i, align 4
  store i32 %2, ptr %arrayidx.i, align 4
  br label %if.end

if.else:                                          ; preds = %entry, %_ZNK6vectorIjLb0EjE5emptyEv.exit
  %m_others = getelementptr inbounds i8, ptr %this, i64 112
  %5 = load ptr, ptr %m_others, align 8
  %cmp.i2 = icmp eq ptr %5, null
  br i1 %cmp.i2, label %if.then.i, label %lor.lhs.false.i

lor.lhs.false.i:                                  ; preds = %if.else
  %arrayidx.i3 = getelementptr inbounds i8, ptr %5, i64 -4
  %6 = load i32, ptr %arrayidx.i3, align 4
  %arrayidx4.i = getelementptr inbounds i8, ptr %5, i64 -8
  %7 = load i32, ptr %arrayidx4.i, align 4
  %cmp5.i = icmp eq i32 %6, %7
  br i1 %cmp5.i, label %if.then.i, label %_ZN6vectorIPN7datalog13relation_baseELb0EjE9push_backEOS2_.exit

if.then.i:                                        ; preds = %if.else, %lor.lhs.false.i
  %retval.0.i9 = phi i32 [ %6, %lor.lhs.false.i ], [ 0, %if.else ]
  tail call void @_ZN6vectorIPN7datalog13relation_baseELb0EjE13expand_vectorEv(ptr noundef nonnull align 8 dereferenceable(8) %m_others)
  %.pre.i = load ptr, ptr %m_others, align 8
  %arrayidx8.phi.trans.insert.i = getelementptr inbounds i8, ptr %.pre.i, i64 -4
  %.pre1.i = load i32, ptr %arrayidx8.phi.trans.insert.i, align 4
  br label %_ZN6vectorIPN7datalog13relation_baseELb0EjE9push_backEOS2_.exit

_ZN6vectorIPN7datalog13relation_baseELb0EjE9push_backEOS2_.exit: ; preds = %lor.lhs.false.i, %if.then.i
  %retval.0.i8 = phi i32 [ %retval.0.i9, %if.then.i ], [ %6, %lor.lhs.false.i ]
  %8 = phi i32 [ %.pre1.i, %if.then.i ], [ %6, %lor.lhs.false.i ]
  %9 = phi ptr [ %.pre.i, %if.then.i ], [ %5, %lor.lhs.false.i ]
  %idx.ext.i = zext i32 %8 to i64
  %add.ptr.i = getelementptr inbounds ptr, ptr %9, i64 %idx.ext.i
  store ptr null, ptr %add.ptr.i, align 8
  %10 = load ptr, ptr %m_others, align 8
  %arrayidx10.i = getelementptr inbounds i8, ptr %10, i64 -4
  %11 = load i32, ptr %arrayidx10.i, align 4
  %inc.i = add i32 %11, 1
  store i32 %inc.i, ptr %arrayidx10.i, align 4
  br label %if.end

if.end:                                           ; preds = %_ZN6vectorIPN7datalog13relation_baseELb0EjE9push_backEOS2_.exit, %_ZN6vectorIjLb0EjE4backEv.exit
  %res.0 = phi i32 [ %retval.0.i8, %_ZN6vectorIPN7datalog13relation_baseELb0EjE9push_backEOS2_.exit ], [ %4, %_ZN6vectorIjLb0EjE4backEv.exit ]
  ret i32 %res.0
}